target datalayout = "e-m:e-p270:32:32-p271:32:32-p272:64:64-i64:64-i128:128-f80:128-n8:16:32:64-S128"
target triple = "x86_64-unknown-linux-gnu"

%"class.v8::IndirectHandleBase" = type { ptr }
%"class.node::MemoryRetainer" = type { ptr }
%"class.node::ListNode" = type { ptr, ptr }
%"class.node::LibuvStreamWrap" = type { %"class.node::HandleWrap", %"class.node::StreamBase", ptr }
%"class.node::HandleWrap" = type { %"class.node::AsyncWrap", i32, %"class.node::ListNode", ptr }
%"class.node::AsyncWrap" = type { %"class.node::BaseObject", i32, i8, double, double }
%"class.node::BaseObject" = type { %"class.node::MemoryRetainer", %"class.v8::Global.278", ptr, ptr }
%"class.v8::Global.278" = type { %"class.v8::PersistentBase.279" }
%"class.v8::PersistentBase.279" = type { %"class.v8::IndirectHandleBase" }
%"class.node::StreamBase" = type { %"class.node::StreamResource", ptr, %"class.node::EmitToJSStreamListener" }
%"class.node::StreamResource" = type { ptr, ptr, i64, i64 }
%"class.node::EmitToJSStreamListener" = type { %"class.node::ReportWritesToJSStreamListener" }
%"class.node::ReportWritesToJSStreamListener" = type { %"class.node::StreamListener" }
%"class.node::StreamListener" = type { ptr, ptr, ptr }

; Function Attrs: mustprogress nounwind uwtable
define linkonce_odr dso_local noundef ptr @_ZNK4node15LibuvStreamWrap6streamEv(ptr noundef nonnull align 8 dereferenceable(160) %this) #4 comdat align 2 {
entry:
  %this.addr = alloca ptr, align 8
  store ptr %this, ptr %this.addr, align 8
  %this1 = load ptr, ptr %this.addr, align 8
  %stream_ = getelementptr inbounds %"class.node::LibuvStreamWrap", ptr %this1, i32 0, i32 2
  %0 = load ptr, ptr %stream_, align 8
  ret ptr %0
}

; Function Attrs: mustprogress nounwind uwtable
define dso_local noundef i32 @_ZN4node15LibuvStreamWrap5GetFDEv(ptr noundef nonnull align 8 dereferenceable(160) %this) unnamed_addr #4 align 2 {
entry:
  %this.addr = alloca ptr, align 8
  %fd = alloca i32, align 4
  store ptr %this, ptr %this.addr, align 8
  %this1 = load ptr, ptr %this.addr, align 8
  store i32 -1, ptr %fd, align 4
  %call = call noundef ptr @_ZNK4node15LibuvStreamWrap6streamEv(ptr noundef nonnull align 8 dereferenceable(160) %this1)
  %cmp = icmp ne ptr %call, null
  br i1 %cmp, label %if.then, label %if.end

if.then:                                          ; preds = %entry
  %call2 = call noundef ptr @_ZNK4node15LibuvStreamWrap6streamEv(ptr noundef nonnull align 8 dereferenceable(160) %this1)
  %call3 = call i32 @uv_fileno(ptr noundef %call2, ptr noundef %fd)
  br label %if.end

if.end:                                           ; preds = %if.then, %entry
  %0 = load i32, ptr %fd, align 4
  ret i32 %0
}