; Function Attrs: mustprogress nounwind uwtable
define dso_local noundef i32 @_ZN4node15LibuvStreamWrap5GetFDEv(ptr nocapture noundef nonnull readonly align 8 dereferenceable(160) %this) unnamed_addr #3 align 2 {
entry:
  %fd = alloca i32, align 4
  store i32 -1, ptr %fd, align 4
  %stream_.i = getelementptr inbounds i8, ptr %this, i64 152
  %0 = load ptr, ptr %stream_.i, align 8
  %cmp.not = icmp eq ptr %0, null
  br i1 %cmp.not, label %if.end, label %if.then

if.then:                                          ; preds = %entry
  %call3 = call i32 @uv_fileno(ptr noundef nonnull %0, ptr noundef nonnull %fd) #17
  %.pre = load i32, ptr %fd, align 4
  br label %if.end

if.end:                                           ; preds = %if.then, %entry
  %1 = phi i32 [ %.pre, %if.then ], [ -1, %entry ]
  ret i32 %1
}